; Function Attrs: mustprogress nounwind uwtable
define hidden void @_ZN7datalog14check_relationD2Ev(ptr noundef nonnull align 8 captures(none) dereferenceable(64) initializes((0, 8)) %0) unnamed_addr #4 align 2 personality ptr @__gxx_personality_v0 {
  store ptr getelementptr inbounds nuw inrange(-16, 160) (i8, ptr @_ZTVN7datalog14check_relationE, i64 16), ptr %0, align 8, !tbaa !3
  %2 = getelementptr inbounds nuw i8, ptr %0, i64 40
  %3 = load ptr, ptr %2, align 8, !tbaa !29
  %4 = load ptr, ptr %3, align 8, !tbaa !3
  %5 = getelementptr inbounds nuw i8, ptr %4, i64 16
  %6 = load ptr, ptr %5, align 8
  invoke void %6(ptr noundef nonnull align 8 dereferenceable(28) %3)
          to label %7 unwind label %28

7:                                                ; preds = %1
  %8 = getelementptr inbounds nuw i8, ptr %0, i64 48
  %9 = load ptr, ptr %8, align 8, !tbaa !35
  %.not.i.i = icmp eq ptr %9, null
  br i1 %.not.i.i, label %_ZN7obj_refI4expr11ast_managerED2Ev.exit, label %10

10:                                               ; preds = %7
  %11 = getelementptr inbounds nuw i8, ptr %0, i64 56
  %12 = load ptr, ptr %11, align 8, !tbaa !36
  %13 = getelementptr inbounds nuw i8, ptr %9, i64 8
  %14 = load i32, ptr %13, align 4, !tbaa !37
  %15 = add i32 %14, -1
  store i32 %15, ptr %13, align 4, !tbaa !37
  %16 = icmp eq i32 %15, 0
  br i1 %16, label %17, label %_ZN7obj_refI4expr11ast_managerED2Ev.exit

17:                                               ; preds = %10
  invoke void @_ZN11ast_manager11delete_nodeEP3ast(ptr noundef nonnull align 8 dereferenceable(976) %12, ptr noundef nonnull %9)
          to label %_ZN7obj_refI4expr11ast_managerED2Ev.exit unwind label %18

18:                                               ; preds = %17
  %19 = landingpad { ptr, i32 }
          catch ptr null
  %20 = extractvalue { ptr, i32 } %19, 0
  tail call void @__clang_call_terminate(ptr %20) #25
  unreachable

_ZN7obj_refI4expr11ast_managerED2Ev.exit:         ; preds = %7, %10, %17
  store ptr getelementptr inbounds nuw inrange(-16, 128) (i8, ptr @_ZTVN7datalog17tr_infrastructureINS_15relation_traitsEE13base_ancestorE, i64 16), ptr %0, align 8, !tbaa !3
  %21 = getelementptr inbounds nuw i8, ptr %0, i64 16
  %22 = load ptr, ptr %21, align 8, !tbaa !10
  %.not.i.i.i = icmp eq ptr %22, null
  br i1 %.not.i.i.i, label %_ZN7datalog17tr_infrastructureINS_15relation_traitsEE13base_ancestorD2Ev.exit, label %23

23:                                               ; preds = %_ZN7obj_refI4expr11ast_managerED2Ev.exit
  %24 = getelementptr inbounds i8, ptr %22, i64 -8
  invoke void @_ZN6memory10deallocateEPv(ptr noundef nonnull %24)
          to label %_ZN7datalog17tr_infrastructureINS_15relation_traitsEE13base_ancestorD2Ev.exit unwind label %25

25:                                               ; preds = %23
  %26 = landingpad { ptr, i32 }
          catch ptr null
  %27 = extractvalue { ptr, i32 } %26, 0
  tail call void @__clang_call_terminate(ptr %27) #25
  unreachable

_ZN7datalog17tr_infrastructureINS_15relation_traitsEE13base_ancestorD2Ev.exit: ; preds = %_ZN7obj_refI4expr11ast_managerED2Ev.exit, %23
  ret void

28:                                               ; preds = %1
  %29 = landingpad { ptr, i32 }
          catch ptr null
  %30 = extractvalue { ptr, i32 } %29, 0
  tail call void @__clang_call_terminate(ptr %30) #25
  unreachable
}